target datalayout = "e-m:e-p270:32:32-p271:32:32-p272:64:64-i64:64-i128:128-f80:128-n8:16:32:64-S128"
target triple = "x86_64-pc-linux-gnu"

%struct._psqlSettings = type { ptr, i32, ptr, i8, ptr, ptr, %struct.printQueryOpt, ptr, ptr, ptr, i8, i8, i32, i32, ptr, ptr, i8, [4 x ptr], i8, i32, ptr, i8, i32, ptr, ptr, i64, i64, i8, ptr, ptr, ptr, i8, i8, i8, i8, i8, i8, i8, i32, i32, i32, i32, i32, i32, i32, i32, ptr, ptr, ptr, i32, i8, i32 }
%struct.printQueryOpt = type { %struct.printTableOpt, ptr, ptr, ptr, i8, ptr, i32 }
%struct.printTableOpt = type { i32, i16, i32, i32, i16, i16, i32, i8, i8, i8, i8, i64, ptr, %struct.separator, %struct.separator, [2 x i8], i8, ptr, i32, i32, i32, i32, i32, i32 }
%struct.separator = type { ptr, i8 }
%struct.PQExpBufferData = type { ptr, i64, i64 }

@pset = external global %struct._psqlSettings, align 8
@.str.192 = private unnamed_addr constant [16 x i8] c"no query buffer\00", align 1
@.str.193 = private unnamed_addr constant [11 x i8] c"0123456789\00", align 1
@.str.194 = private unnamed_addr constant [24 x i8] c"invalid line number: %s\00", align 1

; Function Attrs: nounwind uwtable
define internal void @ignore_slash_options(ptr noundef %0) #0 {
  %2 = alloca ptr, align 8
  %3 = alloca ptr, align 8
  store ptr %0, ptr %2, align 8
  call void @llvm.lifetime.start.p0(i64 8, ptr %3) #10
  br label %4

4:                                                ; preds = %8, %1
  %5 = load ptr, ptr %2, align 8
  %6 = call ptr @psql_scan_slash_option(ptr noundef %5, i32 noundef 0, ptr noundef null, i1 noundef zeroext false)
  store ptr %6, ptr %3, align 8
  %7 = icmp ne ptr %6, null
  br i1 %7, label %8, label %10

8:                                                ; preds = %4
  %9 = load ptr, ptr %3, align 8
  call void @free(ptr noundef %9) #10
  br label %4, !llvm.loop !18

10:                                               ; preds = %4
  call void @llvm.lifetime.end.p0(i64 8, ptr %3) #10
  ret void
}

; Function Attrs: nounwind uwtable
define internal zeroext i1 @copy_previous_query(ptr noundef %0, ptr noundef %1) #0 {
  %3 = alloca i1, align 1
  %4 = alloca ptr, align 8
  %5 = alloca ptr, align 8
  store ptr %0, ptr %4, align 8
  store ptr %1, ptr %5, align 8
  %6 = load ptr, ptr %4, align 8
  %7 = icmp ne ptr %6, null
  br i1 %7, label %8, label %18

8:                                                ; preds = %2
  %9 = load ptr, ptr %4, align 8
  %10 = getelementptr inbounds nuw %struct.PQExpBufferData, ptr %9, i32 0, i32 1
  %11 = load i64, ptr %10, align 8
  %12 = icmp eq i64 %11, 0
  br i1 %12, label %13, label %18

13:                                               ; preds = %8
  %14 = load ptr, ptr %4, align 8
  %15 = load ptr, ptr %5, align 8
  %16 = getelementptr inbounds nuw %struct.PQExpBufferData, ptr %15, i32 0, i32 0
  %17 = load ptr, ptr %16, align 8
  call void @appendPQExpBufferStr(ptr noundef %14, ptr noundef %17)
  store i1 true, ptr %3, align 1
  br label %19

18:                                               ; preds = %8, %2
  store i1 false, ptr %3, align 1
  br label %19

19:                                               ; preds = %18, %13
  %20 = load i1, ptr %3, align 1
  ret i1 %20
}

; Function Attrs: inlinehint nounwind willreturn memory(read) uwtable
define available_externally i32 @atoi(ptr noundef nonnull %0) #5 {
  %2 = alloca ptr, align 8
  store ptr %0, ptr %2, align 8
  %3 = load ptr, ptr %2, align 8
  %4 = call i64 @strtol(ptr noundef %3, ptr noundef null, i32 noundef 10) #10
  %5 = trunc i64 %4 to i32
  ret i32 %5
}

; Function Attrs: nounwind uwtable
define internal i32 @exec_command_edit(ptr noundef %0, i1 noundef zeroext %1, ptr noundef %2, ptr noundef %3) #0 {
  %5 = alloca ptr, align 8
  %6 = alloca i8, align 1
  %7 = alloca ptr, align 8
  %8 = alloca ptr, align 8
  %9 = alloca i32, align 4
  %10 = alloca ptr, align 8
  %11 = alloca ptr, align 8
  %12 = alloca i32, align 4
  %13 = alloca i8, align 1
  store ptr %0, ptr %5, align 8
  %14 = zext i1 %1 to i8
  store i8 %14, ptr %6, align 1
  store ptr %2, ptr %7, align 8
  store ptr %3, ptr %8, align 8
  call void @llvm.lifetime.start.p0(i64 4, ptr %9) #10
  store i32 2, ptr %9, align 4
  %15 = load i8, ptr %6, align 1, !range !4, !noundef !5
  %16 = trunc i8 %15 to i1
  br i1 %16, label %17, label %91

17:                                               ; preds = %4
  %18 = load ptr, ptr %7, align 8
  %19 = icmp ne ptr %18, null
  br i1 %19, label %21, label %20

20:                                               ; preds = %17
  call void (i32, i32, ptr, ...) @pg_log_generic(i32 noundef 4, i32 noundef 0, ptr noundef @.str.192)
  store i32 5, ptr %9, align 4
  br label %90

21:                                               ; preds = %17
  call void @llvm.lifetime.start.p0(i64 8, ptr %10) #10
  call void @llvm.lifetime.start.p0(i64 8, ptr %11) #10
  store ptr null, ptr %11, align 8
  call void @llvm.lifetime.start.p0(i64 4, ptr %12) #10
  store i32 -1, ptr %12, align 4
  %22 = load ptr, ptr %5, align 8
  %23 = call ptr @psql_scan_slash_option(ptr noundef %22, i32 noundef 0, ptr noundef null, i1 noundef zeroext true)
  store ptr %23, ptr %10, align 8
  %24 = load ptr, ptr %10, align 8
  %25 = icmp ne ptr %24, null
  br i1 %25, label %26, label %47

26:                                               ; preds = %21
  %27 = load ptr, ptr %5, align 8
  %28 = call ptr @psql_scan_slash_option(ptr noundef %27, i32 noundef 0, ptr noundef null, i1 noundef zeroext true)
  store ptr %28, ptr %11, align 8
  %29 = load ptr, ptr %11, align 8
  %30 = icmp eq ptr %29, null
  br i1 %30, label %31, label %46

31:                                               ; preds = %26
  %32 = load ptr, ptr %10, align 8
  %33 = getelementptr inbounds i8, ptr %32, i64 0
  %34 = load i8, ptr %33, align 1
  %35 = sext i8 %34 to i32
  %36 = icmp ne i32 %35, 0
  br i1 %36, label %37, label %45

37:                                               ; preds = %31
  %38 = load ptr, ptr %10, align 8
  %39 = call i64 @strspn(ptr noundef %38, ptr noundef @.str.193) #11
  %40 = load ptr, ptr %10, align 8
  %41 = call i64 @strlen(ptr noundef %40) #11
  %42 = icmp eq i64 %39, %41
  br i1 %42, label %43, label %45

43:                                               ; preds = %37
  %44 = load ptr, ptr %10, align 8
  store ptr %44, ptr %11, align 8
  store ptr null, ptr %10, align 8
  br label %45

45:                                               ; preds = %43, %37, %31
  br label %46

46:                                               ; preds = %45, %26
  br label %47

47:                                               ; preds = %46, %21
  %48 = load ptr, ptr %11, align 8
  %49 = icmp ne ptr %48, null
  br i1 %49, label %50, label %58

50:                                               ; preds = %47
  %51 = load ptr, ptr %11, align 8
  %52 = call i32 @atoi(ptr noundef %51) #11
  store i32 %52, ptr %12, align 4
  %53 = load i32, ptr %12, align 4
  %54 = icmp slt i32 %53, 1
  br i1 %54, label %55, label %57

55:                                               ; preds = %50
  %56 = load ptr, ptr %11, align 8
  call void (i32, i32, ptr, ...) @pg_log_generic(i32 noundef 4, i32 noundef 0, ptr noundef @.str.194, ptr noundef %56)
  store i32 5, ptr %9, align 4
  br label %57

57:                                               ; preds = %55, %50
  br label %58

58:                                               ; preds = %57, %47
  %59 = load i32, ptr %9, align 4
  %60 = icmp ne i32 %59, 5
  br i1 %60, label %61, label %82

61:                                               ; preds = %58
  call void @llvm.lifetime.start.p0(i64 1, ptr %13) #10
  call void @expand_tilde(ptr noundef %10)
  %62 = load ptr, ptr %10, align 8
  %63 = icmp ne ptr %62, null
  br i1 %63, label %64, label %67

64:                                               ; preds = %61
  %65 = load ptr, ptr %10, align 8
  %66 = load i32, ptr getelementptr inbounds nuw (%struct._psqlSettings, ptr @pset, i32 0, i32 1), align 8
  call void @canonicalize_path_enc(ptr noundef %65, i32 noundef %66)
  store i8 1, ptr %13, align 1
  br label %72

67:                                               ; preds = %61
  %68 = load ptr, ptr %7, align 8
  %69 = load ptr, ptr %8, align 8
  %70 = call zeroext i1 @copy_previous_query(ptr noundef %68, ptr noundef %69)
  %71 = zext i1 %70 to i8
  store i8 %71, ptr %13, align 1
  br label %72

72:                                               ; preds = %67, %64
  %73 = load ptr, ptr %10, align 8
  %74 = load ptr, ptr %7, align 8
  %75 = load i32, ptr %12, align 4
  %76 = load i8, ptr %13, align 1, !range !4, !noundef !5
  %77 = trunc i8 %76 to i1
  %78 = call zeroext i1 @do_edit(ptr noundef %73, ptr noundef %74, i32 noundef %75, i1 noundef zeroext %77, ptr noundef null)
  br i1 %78, label %79, label %80

79:                                               ; preds = %72
  store i32 4, ptr %9, align 4
  br label %81

80:                                               ; preds = %72
  store i32 5, ptr %9, align 4
  br label %81

81:                                               ; preds = %80, %79
  call void @llvm.lifetime.end.p0(i64 1, ptr %13) #10
  br label %82

82:                                               ; preds = %81, %58
  %83 = load i32, ptr %9, align 4
  %84 = icmp eq i32 %83, 5
  br i1 %84, label %85, label %87

85:                                               ; preds = %82
  %86 = load ptr, ptr %7, align 8
  call void @resetPQExpBuffer(ptr noundef %86)
  br label %87

87:                                               ; preds = %85, %82
  %88 = load ptr, ptr %10, align 8
  call void @free(ptr noundef %88) #10
  %89 = load ptr, ptr %11, align 8
  call void @free(ptr noundef %89) #10
  call void @llvm.lifetime.end.p0(i64 4, ptr %12) #10
  call void @llvm.lifetime.end.p0(i64 8, ptr %11) #10
  call void @llvm.lifetime.end.p0(i64 8, ptr %10) #10
  br label %90

90:                                               ; preds = %87, %20
  br label %93

91:                                               ; preds = %4
  %92 = load ptr, ptr %5, align 8
  call void @ignore_slash_options(ptr noundef %92)
  br label %93

93:                                               ; preds = %91, %90
  %94 = load i32, ptr %9, align 4
  call void @llvm.lifetime.end.p0(i64 4, ptr %9) #10
  ret i32 %94
}