; Function Attrs: nounwind uwtable
define internal fastcc range(i32 2, 6) i32 @exec_command_edit(ptr noundef %0, i1 noundef zeroext %1, ptr noundef %2, ptr noundef readonly captures(none) %3) unnamed_addr #0 {
  %5 = alloca ptr, align 8
  br i1 %1, label %6, label %39

6:                                                ; preds = %4
  %.not = icmp eq ptr %2, null
  br i1 %.not, label %7, label %8

7:                                                ; preds = %6
  tail call void (i32, i32, ptr, ...) @pg_log_generic(i32 noundef 4, i32 noundef 0, ptr noundef nonnull @.str.192) #16
  br label %ignore_slash_options.exit

8:                                                ; preds = %6
  call void @llvm.lifetime.start.p0(i64 8, ptr nonnull %5) #16
  %9 = tail call ptr @psql_scan_slash_option(ptr noundef %0, i32 noundef 0, ptr noundef null, i1 noundef zeroext true) #16
  store ptr %9, ptr %5, align 8
  %.not28 = icmp eq ptr %9, null
  br i1 %.not28, label %.thread, label %10

10:                                               ; preds = %8
  %11 = tail call ptr @psql_scan_slash_option(ptr noundef %0, i32 noundef 0, ptr noundef null, i1 noundef zeroext true) #16
  %12 = icmp eq ptr %11, null
  br i1 %12, label %13, label %20

13:                                               ; preds = %10
  %14 = load i8, ptr %9, align 1
  %.not29 = icmp eq i8 %14, 0
  br i1 %.not29, label %.thread, label %15

15:                                               ; preds = %13
  %16 = tail call i64 @strspn(ptr noundef nonnull %9, ptr noundef nonnull @.str.193) #17
  %17 = tail call i64 @strlen(ptr noundef nonnull dereferenceable(1) %9) #17
  %18 = icmp eq i64 %16, %17
  br i1 %18, label %19, label %.thread

19:                                               ; preds = %15
  store ptr null, ptr %5, align 8
  br label %20

20:                                               ; preds = %19, %10
  %.020 = phi ptr [ %9, %19 ], [ %11, %10 ]
  %21 = tail call i64 @strtol(ptr noundef nonnull captures(none) %.020, ptr noundef null, i32 noundef 10) #16
  %22 = trunc i64 %21 to i32
  %23 = icmp slt i32 %22, 1
  br i1 %23, label %24, label %.thread

24:                                               ; preds = %20
  tail call void (i32, i32, ptr, ...) @pg_log_generic(i32 noundef 4, i32 noundef 0, ptr noundef nonnull @.str.194, ptr noundef nonnull %.020) #16
  br label %36

.thread:                                          ; preds = %8, %13, %15, %20
  %.02036.ph = phi ptr [ %.020, %20 ], [ null, %15 ], [ null, %13 ], [ null, %8 ]
  %.019.ph = phi i32 [ %22, %20 ], [ -1, %15 ], [ -1, %13 ], [ -1, %8 ]
  call void @expand_tilde(ptr noundef nonnull %5) #16
  %25 = load ptr, ptr %5, align 8
  %.not32 = icmp eq ptr %25, null
  br i1 %.not32, label %28, label %26

26:                                               ; preds = %.thread
  %27 = load i32, ptr getelementptr inbounds nuw (i8, ptr @pset, i64 8), align 8
  call void @canonicalize_path_enc(ptr noundef nonnull %25, i32 noundef %27) #16
  br label %copy_previous_query.exit

28:                                               ; preds = %.thread
  %29 = getelementptr inbounds nuw i8, ptr %2, i64 8
  %30 = load i64, ptr %29, align 8
  %31 = icmp eq i64 %30, 0
  br i1 %31, label %32, label %copy_previous_query.exit

32:                                               ; preds = %28
  %33 = load ptr, ptr %3, align 8
  call void @appendPQExpBufferStr(ptr noundef nonnull %2, ptr noundef %33) #16
  br label %copy_previous_query.exit

copy_previous_query.exit:                         ; preds = %32, %28, %26
  %.0 = phi i1 [ true, %26 ], [ true, %32 ], [ false, %28 ]
  %34 = load ptr, ptr %5, align 8
  %35 = call fastcc zeroext i1 @do_edit(ptr noundef %34, ptr noundef nonnull %2, i32 noundef %.019.ph, i1 noundef zeroext %.0, ptr noundef null)
  br i1 %35, label %37, label %36

36:                                               ; preds = %copy_previous_query.exit, %24
  %.0203643.ph = phi ptr [ %.020, %24 ], [ %.02036.ph, %copy_previous_query.exit ]
  call void @resetPQExpBuffer(ptr noundef nonnull %2) #16
  br label %37

37:                                               ; preds = %copy_previous_query.exit, %36
  %.151 = phi i32 [ 5, %36 ], [ 4, %copy_previous_query.exit ]
  %.020364349 = phi ptr [ %.0203643.ph, %36 ], [ %.02036.ph, %copy_previous_query.exit ]
  %38 = load ptr, ptr %5, align 8
  call void @free(ptr noundef %38) #16
  call void @free(ptr noundef %.020364349) #16
  call void @llvm.lifetime.end.p0(i64 8, ptr nonnull %5) #16
  br label %ignore_slash_options.exit

39:                                               ; preds = %4
  %40 = tail call ptr @psql_scan_slash_option(ptr noundef %0, i32 noundef 0, ptr noundef null, i1 noundef zeroext false) #16
  %.not2.i = icmp eq ptr %40, null
  br i1 %.not2.i, label %ignore_slash_options.exit, label %.lr.ph.i

.lr.ph.i:                                         ; preds = %39, %.lr.ph.i
  %41 = phi ptr [ %42, %.lr.ph.i ], [ %40, %39 ]
  tail call void @free(ptr noundef nonnull %41) #16
  %42 = tail call ptr @psql_scan_slash_option(ptr noundef %0, i32 noundef 0, ptr noundef null, i1 noundef zeroext false) #16
  %.not.i33 = icmp eq ptr %42, null
  br i1 %.not.i33, label %ignore_slash_options.exit, label %.lr.ph.i, !llvm.loop !10

ignore_slash_options.exit:                        ; preds = %.lr.ph.i, %39, %7, %37
  %.3 = phi i32 [ %.151, %37 ], [ 5, %7 ], [ 2, %39 ], [ 2, %.lr.ph.i ]
  ret i32 %.3
}